target datalayout = "e-m:e-p270:32:32-p271:32:32-p272:64:64-i64:64-i128:128-f80:128-n8:16:32:64-S128"
target triple = "x86_64-pc-linux-gnu"

%"class.std::__cxx11::basic_string" = type { %"struct.std::__cxx11::basic_string<char>::_Alloc_hider", i64, %union.anon }
%"struct.std::__cxx11::basic_string<char>::_Alloc_hider" = type { ptr }
%union.anon = type { i64, [8 x i8] }
%"class.std::__cxx11::basic_stringstream" = type { %"class.std::basic_iostream.base", %"class.std::__cxx11::basic_stringbuf", %"class.std::basic_ios" }
%"class.std::basic_iostream.base" = type { %"class.std::basic_istream.base", %"class.std::basic_ostream.base" }
%"class.std::basic_istream.base" = type { ptr, i64 }
%"class.std::basic_ostream.base" = type { ptr }
%"class.std::__cxx11::basic_stringbuf" = type { %"class.std::basic_streambuf", i32, %"class.std::__cxx11::basic_string" }
%"class.std::basic_streambuf" = type { ptr, ptr, ptr, ptr, ptr, ptr, ptr, %"class.std::locale" }
%"class.std::locale" = type { ptr }
%"class.std::basic_ios" = type { %"class.std::ios_base", ptr, i8, i8, ptr, ptr, ptr, ptr }
%"class.std::ios_base" = type { ptr, i64, i64, i32, i32, i32, ptr, %"struct.std::ios_base::_Words", [8 x %"struct.std::ios_base::_Words"], i32, ptr, %"class.std::locale" }
%"struct.std::ios_base::_Words" = type { ptr, i64 }
%"struct.std::_Setw" = type { i32 }

@.str.5 = private unnamed_addr constant [4 x i8] c"Avg\00", align 1
@.str.8 = private unnamed_addr constant [2 x i8] c"\0A\00", align 1
@.str.9 = private unnamed_addr constant [6 x i8] c"Name \00", align 1
@.str.10 = private unnamed_addr constant [7 x i8] c"Number\00", align 1
@.str.11 = private unnamed_addr constant [11 x i8] c"User ticks\00", align 1
@.str.12 = private unnamed_addr constant [7 x i8] c"System\00", align 1
@.str.13 = private unnamed_addr constant [7 x i8] c"Avg ms\00", align 1

; Function Attrs: mustprogress nounwind uwtable
define linkonce_odr i32 @_ZSt4setwi(i32 noundef %0) #5 comdat {
  %2 = alloca %"struct.std::_Setw", align 4
  %3 = alloca i32, align 4
  store i32 %0, ptr %3, align 4
  %4 = getelementptr inbounds nuw %"struct.std::_Setw", ptr %2, i32 0, i32 0
  %5 = load i32, ptr %3, align 4
  store i32 %5, ptr %4, align 4
  %6 = getelementptr inbounds nuw %"struct.std::_Setw", ptr %2, i32 0, i32 0
  %7 = load i32, ptr %6, align 4
  ret i32 %7
}

; Function Attrs: mustprogress uwtable
define void @_ZNK10TimerGroup12DetailHeaderB5cxx11Ev(ptr dead_on_unwind noalias writable sret(%"class.std::__cxx11::basic_string") align 8 %0, ptr noundef nonnull align 8 dereferenceable(56) %1) #4 align 2 personality ptr @__gxx_personality_v0 {
  %3 = alloca ptr, align 8
  %4 = alloca ptr, align 8
  %5 = alloca %"class.std::__cxx11::basic_stringstream", align 8
  %6 = alloca %"struct.std::_Setw", align 4
  %7 = alloca ptr, align 8
  %8 = alloca i32, align 4
  %9 = alloca %"struct.std::_Setw", align 4
  %10 = alloca %"struct.std::_Setw", align 4
  %11 = alloca %"struct.std::_Setw", align 4
  %12 = alloca %"struct.std::_Setw", align 4
  %13 = alloca %"struct.std::_Setw", align 4
  store ptr %0, ptr %3, align 8
  store ptr %1, ptr %4, align 8
  call void @_ZNSt7__cxx1118basic_stringstreamIcSt11char_traitsIcESaIcEEC1Ev(ptr noundef nonnull align 8 dereferenceable(128) %5)
  %14 = getelementptr inbounds i8, ptr %5, i64 16
  %15 = invoke i32 @_ZSt4setwi(i32 noundef 14)
          to label %16 unwind label %76

16:                                               ; preds = %2
  %17 = getelementptr inbounds nuw %"struct.std::_Setw", ptr %6, i32 0, i32 0
  store i32 %15, ptr %17, align 4
  %18 = getelementptr inbounds nuw %"struct.std::_Setw", ptr %6, i32 0, i32 0
  %19 = load i32, ptr %18, align 4
  %20 = invoke noundef nonnull align 8 dereferenceable(8) ptr @_ZStlsIcSt11char_traitsIcEERSt13basic_ostreamIT_T0_ES6_St5_Setw(ptr noundef nonnull align 8 dereferenceable(8) %14, i32 %19)
          to label %21 unwind label %76

21:                                               ; preds = %16
  %22 = invoke noundef nonnull align 8 dereferenceable(8) ptr @_ZNSolsEPFRSt8ios_baseS0_E(ptr noundef nonnull align 8 dereferenceable(8) %20, ptr noundef @_ZSt4leftRSt8ios_base)
          to label %23 unwind label %76

23:                                               ; preds = %21
  %24 = invoke noundef nonnull align 8 dereferenceable(8) ptr @_ZStlsISt11char_traitsIcEERSt13basic_ostreamIcT_ES5_PKc(ptr noundef nonnull align 8 dereferenceable(8) %22, ptr noundef @.str.9)
          to label %25 unwind label %76

25:                                               ; preds = %23
  %26 = invoke i32 @_ZSt4setwi(i32 noundef 11)
          to label %27 unwind label %76

27:                                               ; preds = %25
  %28 = getelementptr inbounds nuw %"struct.std::_Setw", ptr %9, i32 0, i32 0
  store i32 %26, ptr %28, align 4
  %29 = getelementptr inbounds nuw %"struct.std::_Setw", ptr %9, i32 0, i32 0
  %30 = load i32, ptr %29, align 4
  %31 = invoke noundef nonnull align 8 dereferenceable(8) ptr @_ZStlsIcSt11char_traitsIcEERSt13basic_ostreamIT_T0_ES6_St5_Setw(ptr noundef nonnull align 8 dereferenceable(8) %24, i32 %30)
          to label %32 unwind label %76

32:                                               ; preds = %27
  %33 = invoke noundef nonnull align 8 dereferenceable(8) ptr @_ZNSolsEPFRSt8ios_baseS0_E(ptr noundef nonnull align 8 dereferenceable(8) %31, ptr noundef @_ZSt5rightRSt8ios_base)
          to label %34 unwind label %76

34:                                               ; preds = %32
  %35 = invoke noundef nonnull align 8 dereferenceable(8) ptr @_ZStlsISt11char_traitsIcEERSt13basic_ostreamIcT_ES5_PKc(ptr noundef nonnull align 8 dereferenceable(8) %33, ptr noundef @.str.10)
          to label %36 unwind label %76

36:                                               ; preds = %34
  %37 = invoke i32 @_ZSt4setwi(i32 noundef 11)
          to label %38 unwind label %76

38:                                               ; preds = %36
  %39 = getelementptr inbounds nuw %"struct.std::_Setw", ptr %10, i32 0, i32 0
  store i32 %37, ptr %39, align 4
  %40 = getelementptr inbounds nuw %"struct.std::_Setw", ptr %10, i32 0, i32 0
  %41 = load i32, ptr %40, align 4
  %42 = invoke noundef nonnull align 8 dereferenceable(8) ptr @_ZStlsIcSt11char_traitsIcEERSt13basic_ostreamIT_T0_ES6_St5_Setw(ptr noundef nonnull align 8 dereferenceable(8) %35, i32 %41)
          to label %43 unwind label %76

43:                                               ; preds = %38
  %44 = invoke noundef nonnull align 8 dereferenceable(8) ptr @_ZStlsISt11char_traitsIcEERSt13basic_ostreamIcT_ES5_PKc(ptr noundef nonnull align 8 dereferenceable(8) %42, ptr noundef @.str.11)
          to label %45 unwind label %76

45:                                               ; preds = %43
  %46 = invoke i32 @_ZSt4setwi(i32 noundef 11)
          to label %47 unwind label %76

47:                                               ; preds = %45
  %48 = getelementptr inbounds nuw %"struct.std::_Setw", ptr %11, i32 0, i32 0
  store i32 %46, ptr %48, align 4
  %49 = getelementptr inbounds nuw %"struct.std::_Setw", ptr %11, i32 0, i32 0
  %50 = load i32, ptr %49, align 4
  %51 = invoke noundef nonnull align 8 dereferenceable(8) ptr @_ZStlsIcSt11char_traitsIcEERSt13basic_ostreamIT_T0_ES6_St5_Setw(ptr noundef nonnull align 8 dereferenceable(8) %44, i32 %50)
          to label %52 unwind label %76

52:                                               ; preds = %47
  %53 = invoke noundef nonnull align 8 dereferenceable(8) ptr @_ZStlsISt11char_traitsIcEERSt13basic_ostreamIcT_ES5_PKc(ptr noundef nonnull align 8 dereferenceable(8) %51, ptr noundef @.str.5)
          to label %54 unwind label %76

54:                                               ; preds = %52
  %55 = invoke i32 @_ZSt4setwi(i32 noundef 11)
          to label %56 unwind label %76

56:                                               ; preds = %54
  %57 = getelementptr inbounds nuw %"struct.std::_Setw", ptr %12, i32 0, i32 0
  store i32 %55, ptr %57, align 4
  %58 = getelementptr inbounds nuw %"struct.std::_Setw", ptr %12, i32 0, i32 0
  %59 = load i32, ptr %58, align 4
  %60 = invoke noundef nonnull align 8 dereferenceable(8) ptr @_ZStlsIcSt11char_traitsIcEERSt13basic_ostreamIT_T0_ES6_St5_Setw(ptr noundef nonnull align 8 dereferenceable(8) %53, i32 %59)
          to label %61 unwind label %76

61:                                               ; preds = %56
  %62 = invoke noundef nonnull align 8 dereferenceable(8) ptr @_ZStlsISt11char_traitsIcEERSt13basic_ostreamIcT_ES5_PKc(ptr noundef nonnull align 8 dereferenceable(8) %60, ptr noundef @.str.12)
          to label %63 unwind label %76

63:                                               ; preds = %61
  %64 = invoke i32 @_ZSt4setwi(i32 noundef 11)
          to label %65 unwind label %76

65:                                               ; preds = %63
  %66 = getelementptr inbounds nuw %"struct.std::_Setw", ptr %13, i32 0, i32 0
  store i32 %64, ptr %66, align 4
  %67 = getelementptr inbounds nuw %"struct.std::_Setw", ptr %13, i32 0, i32 0
  %68 = load i32, ptr %67, align 4
  %69 = invoke noundef nonnull align 8 dereferenceable(8) ptr @_ZStlsIcSt11char_traitsIcEERSt13basic_ostreamIT_T0_ES6_St5_Setw(ptr noundef nonnull align 8 dereferenceable(8) %62, i32 %68)
          to label %70 unwind label %76

70:                                               ; preds = %65
  %71 = invoke noundef nonnull align 8 dereferenceable(8) ptr @_ZStlsISt11char_traitsIcEERSt13basic_ostreamIcT_ES5_PKc(ptr noundef nonnull align 8 dereferenceable(8) %69, ptr noundef @.str.13)
          to label %72 unwind label %76

72:                                               ; preds = %70
  %73 = invoke noundef nonnull align 8 dereferenceable(8) ptr @_ZStlsISt11char_traitsIcEERSt13basic_ostreamIcT_ES5_PKc(ptr noundef nonnull align 8 dereferenceable(8) %71, ptr noundef @.str.8)
          to label %74 unwind label %76

74:                                               ; preds = %72
  invoke void @_ZNKSt7__cxx1118basic_stringstreamIcSt11char_traitsIcESaIcEE3strEv(ptr dead_on_unwind writable sret(%"class.std::__cxx11::basic_string") align 8 %0, ptr noundef nonnull align 8 dereferenceable(128) %5)
          to label %75 unwind label %76

75:                                               ; preds = %74
  call void @_ZNSt7__cxx1118basic_stringstreamIcSt11char_traitsIcESaIcEED1Ev(ptr noundef nonnull align 8 dereferenceable(128) %5) #3
  ret void

76:                                               ; preds = %74, %72, %70, %65, %63, %61, %56, %54, %52, %47, %45, %43, %38, %36, %34, %32, %27, %25, %23, %21, %16, %2
  %77 = landingpad { ptr, i32 }
          cleanup
  %78 = extractvalue { ptr, i32 } %77, 0
  store ptr %78, ptr %7, align 8
  %79 = extractvalue { ptr, i32 } %77, 1
  store i32 %79, ptr %8, align 4
  call void @_ZNSt7__cxx1118basic_stringstreamIcSt11char_traitsIcESaIcEED1Ev(ptr noundef nonnull align 8 dereferenceable(128) %5) #3
  br label %80

80:                                               ; preds = %76
  %81 = load ptr, ptr %7, align 8
  %82 = load i32, ptr %8, align 4
  %83 = insertvalue { ptr, i32 } poison, ptr %81, 0
  %84 = insertvalue { ptr, i32 } %83, i32 %82, 1
  resume { ptr, i32 } %84
}